; Function Attrs: mustprogress uwtable
define void @_ZN2cv16AVIReadContainer5closeEv(ptr noundef nonnull readonly align 8 captures(none) dereferenceable(137) %0) local_unnamed_addr #4 align 2 {
  %2 = load ptr, ptr %0, align 8, !tbaa !68
  %3 = getelementptr inbounds nuw i8, ptr %2, i64 120
  %4 = tail call noundef zeroext i1 @_ZNKSt12__basic_fileIcE7is_openEv(ptr noundef nonnull readonly align 8 dereferenceable(9) %3) #29
  br i1 %4, label %5, label %_ZN2cv16VideoInputStream5closeEv.exit

5:                                                ; preds = %1
  %6 = getelementptr inbounds nuw i8, ptr %2, i64 520
  store i8 0, ptr %6, align 8, !tbaa !3
  %7 = getelementptr inbounds nuw i8, ptr %2, i64 16
  %8 = tail call noundef ptr @_ZNSt13basic_filebufIcSt11char_traitsIcEE5closeEv(ptr noundef nonnull align 8 dereferenceable(240) %7)
  %.not.i.i = icmp eq ptr %8, null
  br i1 %.not.i.i, label %9, label %_ZN2cv16VideoInputStream5closeEv.exit

9:                                                ; preds = %5
  %10 = load ptr, ptr %2, align 8, !tbaa !29
  %11 = getelementptr i8, ptr %10, i64 -24
  %12 = load i64, ptr %11, align 8
  %13 = getelementptr inbounds i8, ptr %2, i64 %12
  %14 = getelementptr inbounds nuw i8, ptr %13, i64 32
  %15 = load i32, ptr %14, align 8, !tbaa !31
  %16 = or i32 %15, 4
  tail call void @_ZNSt9basic_iosIcSt11char_traitsIcEE5clearESt12_Ios_Iostate(ptr noundef nonnull align 8 dereferenceable(264) %13, i32 noundef %16)
  br label %_ZN2cv16VideoInputStream5closeEv.exit

_ZN2cv16VideoInputStream5closeEv.exit:            ; preds = %1, %5, %9
  ret void
}